target datalayout = "e-m:e-p270:32:32-p271:32:32-p272:64:64-i64:64-i128:128-f80:128-n8:16:32:64-S128"
target triple = "x86_64-pc-linux-gnu"

%"class.icu_77::UnicodeString" = type { %"class.icu_77::Replaceable", %"union.icu_77::UnicodeString::StackBufferOrFields" }
%"class.icu_77::Replaceable" = type { %"class.icu_77::UObject" }
%"class.icu_77::UObject" = type { ptr }
%"union.icu_77::UnicodeString::StackBufferOrFields" = type { %struct.anon.0, [32 x i8] }
%struct.anon.0 = type { i16, i32, i32, ptr }
%"class.icu_77::FormatParser" = type { ptr, [50 x %"class.icu_77::UnicodeString"], i32, i32 }

@_ZTVN6icu_7712FormatParserE = unnamed_addr constant { [5 x ptr] } { [5 x ptr] [ptr null, ptr @_ZTIN6icu_7712FormatParserE, ptr @_ZN6icu_7712FormatParserD1Ev, ptr @_ZN6icu_7712FormatParserD0Ev, ptr @_ZN6icu_7712FormatParser9setTokensERKNS_13UnicodeStringEiPi] }, align 8

; Function Attrs: mustprogress nounwind uwtable
define void @_ZN6icu_7712FormatParserD2Ev(ptr noundef nonnull align 8 dereferenceable(3216) %0) unnamed_addr #0 align 2 {
  %2 = alloca ptr, align 8
  store ptr %0, ptr %2, align 8, !tbaa !69
  %3 = load ptr, ptr %2, align 8
  store ptr getelementptr inbounds inrange(-16, 24) ({ [5 x ptr] }, ptr @_ZTVN6icu_7712FormatParserE, i32 0, i32 0, i32 2), ptr %3, align 8, !tbaa !37
  %4 = getelementptr inbounds nuw %"class.icu_77::FormatParser", ptr %3, i32 0, i32 1
  %5 = getelementptr inbounds [50 x %"class.icu_77::UnicodeString"], ptr %4, i32 0, i32 0
  %6 = getelementptr inbounds %"class.icu_77::UnicodeString", ptr %5, i64 50
  br label %7

7:                                                ; preds = %7, %1
  %8 = phi ptr [ %6, %1 ], [ %9, %7 ]
  %9 = getelementptr inbounds %"class.icu_77::UnicodeString", ptr %8, i64 -1
  call void @_ZN6icu_7713UnicodeStringD1Ev(ptr noundef nonnull align 8 dereferenceable(64) %9) #13
  %10 = icmp eq ptr %9, %5
  br i1 %10, label %11, label %7

11:                                               ; preds = %7
  ret void
}