; Function Attrs: mustprogress nounwind uwtable
define void @_ZN6icu_7712FormatParserD2Ev(ptr noundef nonnull align 8 dereferenceable(3216) initializes((0, 8)) %0) unnamed_addr #0 align 2 {
  store ptr getelementptr inbounds nuw inrange(-16, 24) (i8, ptr @_ZTVN6icu_7712FormatParserE, i64 16), ptr %0, align 8, !tbaa !15
  br label %2

2:                                                ; preds = %2, %1
  %.idx = phi i64 [ 3208, %1 ], [ %.add, %2 ]
  %.add = add nsw i64 %.idx, -64
  %.ptr1 = getelementptr inbounds i8, ptr %0, i64 %.add
  tail call void @_ZN6icu_7713UnicodeStringD1Ev(ptr noundef nonnull align 8 dereferenceable(64) %.ptr1) #35
  %3 = icmp eq i64 %.add, 8
  br i1 %3, label %4, label %2

4:                                                ; preds = %2
  ret void
}